; Function Attrs: mustprogress nofree norecurse nosync nounwind willreturn memory(read, inaccessiblemem: none) uwtable
define hidden noundef zeroext i1 @_ZNK6BitMap10intersectsERKS_(ptr nocapture noundef nonnull readonly align 8 dereferenceable(16) %0, ptr nocapture noundef nonnull readonly align 8 dereferenceable(16) %1) local_unnamed_addr #4 align 2 {
  %3 = load ptr, ptr %0, align 8
  %4 = load ptr, ptr %1, align 8
  %5 = getelementptr inbounds i8, ptr %0, i64 8
  %6 = load i64, ptr %5, align 8
  %7 = lshr i64 %6, 6
  %.not20 = icmp ult i64 %6, 64
  br i1 %.not20, label %._crit_edge, label %.lr.ph

8:                                                ; preds = %.lr.ph
  %9 = add nuw nsw i64 %.01519, 1
  %exitcond.not = icmp eq i64 %9, %7
  br i1 %exitcond.not, label %._crit_edge, label %.lr.ph, !llvm.loop !13

.lr.ph:                                           ; preds = %2, %8
  %.01519 = phi i64 [ %9, %8 ], [ 0, %2 ]
  %10 = getelementptr inbounds i64, ptr %3, i64 %.01519
  %11 = load i64, ptr %10, align 8
  %12 = getelementptr inbounds i64, ptr %4, i64 %.01519
  %13 = load i64, ptr %12, align 8
  %14 = and i64 %13, %11
  %.not18 = icmp eq i64 %14, 0
  br i1 %.not18, label %8, label %.loopexit

._crit_edge:                                      ; preds = %8, %2
  %15 = and i64 %6, 63
  %.not = icmp eq i64 %15, 0
  br i1 %.not, label %.loopexit, label %16

16:                                               ; preds = %._crit_edge
  %17 = getelementptr inbounds i64, ptr %3, i64 %7
  %18 = load i64, ptr %17, align 8
  %19 = getelementptr inbounds i64, ptr %4, i64 %7
  %20 = load i64, ptr %19, align 8
  %notmask.i.i = shl nsw i64 -1, %15
  %21 = xor i64 %notmask.i.i, -1
  %22 = and i64 %18, %21
  %23 = and i64 %22, %20
  %24 = icmp ne i64 %23, 0
  br label %.loopexit

.loopexit:                                        ; preds = %.lr.ph, %._crit_edge, %16
  %.0 = phi i1 [ false, %._crit_edge ], [ %24, %16 ], [ true, %.lr.ph ]
  ret i1 %.0
}